target datalayout = "e-m:e-p270:32:32-p271:32:32-p272:64:64-i64:64-i128:128-f80:128-n8:16:32:64-S128"
target triple = "x86_64-pc-linux-gnu"

%"class.Json::Features" = type { i8, i8, i8, i8 }
%"class.Json::Reader" = type <{ %"class.std::stack", %"class.std::deque.0", %"class.std::__cxx11::basic_string", ptr, ptr, ptr, ptr, ptr, %"class.std::__cxx11::basic_string", %"class.Json::Features", i8, [3 x i8] }>
%"class.std::stack" = type { %"class.std::deque" }
%"class.std::deque" = type { %"class.std::_Deque_base" }
%"class.std::_Deque_base" = type { %"struct.std::_Deque_base<Json::Value *, std::allocator<Json::Value *>>::_Deque_impl" }
%"struct.std::_Deque_base<Json::Value *, std::allocator<Json::Value *>>::_Deque_impl" = type { %"struct.std::_Deque_base<Json::Value *, std::allocator<Json::Value *>>::_Deque_impl_data" }
%"struct.std::_Deque_base<Json::Value *, std::allocator<Json::Value *>>::_Deque_impl_data" = type { ptr, i64, %"struct.std::_Deque_iterator", %"struct.std::_Deque_iterator" }
%"struct.std::_Deque_iterator" = type { ptr, ptr, ptr, ptr }
%"class.std::deque.0" = type { %"class.std::_Deque_base.1" }
%"class.std::_Deque_base.1" = type { %"struct.std::_Deque_base<Json::Reader::ErrorInfo, std::allocator<Json::Reader::ErrorInfo>>::_Deque_impl" }
%"struct.std::_Deque_base<Json::Reader::ErrorInfo, std::allocator<Json::Reader::ErrorInfo>>::_Deque_impl" = type { %"struct.std::_Deque_base<Json::Reader::ErrorInfo, std::allocator<Json::Reader::ErrorInfo>>::_Deque_impl_data" }
%"struct.std::_Deque_base<Json::Reader::ErrorInfo, std::allocator<Json::Reader::ErrorInfo>>::_Deque_impl_data" = type { ptr, i64, %"struct.std::_Deque_iterator.5", %"struct.std::_Deque_iterator.5" }
%"struct.std::_Deque_iterator.5" = type { ptr, ptr, ptr, ptr }
%"class.std::__cxx11::basic_string" = type { %"struct.std::__cxx11::basic_string<char>::_Alloc_hider", i64, %union.anon }
%"struct.std::__cxx11::basic_string<char>::_Alloc_hider" = type { ptr }
%union.anon = type { i64, [8 x i8] }

; Function Attrs: mustprogress uwtable
define dso_local noundef zeroext i1 @_ZN4Json6Reader19readCppStyleCommentEv(ptr noundef nonnull align 8 dereferenceable(269) %0) #5 align 2 {
  %2 = alloca ptr, align 8
  %3 = alloca i8, align 1
  store ptr %0, ptr %2, align 8
  %4 = load ptr, ptr %2, align 8
  br label %5

5:                                                ; preds = %36, %1
  %6 = getelementptr inbounds %"class.Json::Reader", ptr %4, i32 0, i32 5
  %7 = load ptr, ptr %6, align 8
  %8 = getelementptr inbounds %"class.Json::Reader", ptr %4, i32 0, i32 4
  %9 = load ptr, ptr %8, align 8
  %10 = icmp ne ptr %7, %9
  br i1 %10, label %11, label %37

11:                                               ; preds = %5
  %12 = call noundef signext i8 @_ZN4Json6Reader11getNextCharEv(ptr noundef nonnull align 8 dereferenceable(269) %4)
  store i8 %12, ptr %3, align 1
  %13 = load i8, ptr %3, align 1
  %14 = sext i8 %13 to i32
  %15 = icmp eq i32 %14, 10
  br i1 %15, label %16, label %17

16:                                               ; preds = %11
  br label %37

17:                                               ; preds = %11
  %18 = load i8, ptr %3, align 1
  %19 = sext i8 %18 to i32
  %20 = icmp eq i32 %19, 13
  br i1 %20, label %21, label %36

21:                                               ; preds = %17
  %22 = getelementptr inbounds %"class.Json::Reader", ptr %4, i32 0, i32 5
  %23 = load ptr, ptr %22, align 8
  %24 = getelementptr inbounds %"class.Json::Reader", ptr %4, i32 0, i32 4
  %25 = load ptr, ptr %24, align 8
  %26 = icmp ne ptr %23, %25
  br i1 %26, label %27, label %35

27:                                               ; preds = %21
  %28 = getelementptr inbounds %"class.Json::Reader", ptr %4, i32 0, i32 5
  %29 = load ptr, ptr %28, align 8
  %30 = load i8, ptr %29, align 1
  %31 = sext i8 %30 to i32
  %32 = icmp eq i32 %31, 10
  br i1 %32, label %33, label %35

33:                                               ; preds = %27
  %34 = call noundef signext i8 @_ZN4Json6Reader11getNextCharEv(ptr noundef nonnull align 8 dereferenceable(269) %4)
  br label %35

35:                                               ; preds = %33, %27, %21
  br label %37

36:                                               ; preds = %17
  br label %5, !llvm.loop !20

37:                                               ; preds = %35, %16, %5
  ret i1 true
}

; Function Attrs: mustprogress uwtable
define dso_local noundef zeroext i1 @_ZN4Json6Reader17readCStyleCommentEv(ptr noundef nonnull align 8 dereferenceable(269) %0) #5 align 2 {
  %2 = alloca ptr, align 8
  %3 = alloca i8, align 1
  store ptr %0, ptr %2, align 8
  %4 = load ptr, ptr %2, align 8
  br label %5

5:                                                ; preds = %24, %1
  %6 = getelementptr inbounds %"class.Json::Reader", ptr %4, i32 0, i32 5
  %7 = load ptr, ptr %6, align 8
  %8 = getelementptr inbounds i8, ptr %7, i64 1
  %9 = getelementptr inbounds %"class.Json::Reader", ptr %4, i32 0, i32 4
  %10 = load ptr, ptr %9, align 8
  %11 = icmp ult ptr %8, %10
  br i1 %11, label %12, label %25

12:                                               ; preds = %5
  %13 = call noundef signext i8 @_ZN4Json6Reader11getNextCharEv(ptr noundef nonnull align 8 dereferenceable(269) %4)
  store i8 %13, ptr %3, align 1
  %14 = load i8, ptr %3, align 1
  %15 = sext i8 %14 to i32
  %16 = icmp eq i32 %15, 42
  br i1 %16, label %17, label %24

17:                                               ; preds = %12
  %18 = getelementptr inbounds %"class.Json::Reader", ptr %4, i32 0, i32 5
  %19 = load ptr, ptr %18, align 8
  %20 = load i8, ptr %19, align 1
  %21 = sext i8 %20 to i32
  %22 = icmp eq i32 %21, 47
  br i1 %22, label %23, label %24

23:                                               ; preds = %17
  br label %25

24:                                               ; preds = %17, %12
  br label %5, !llvm.loop !19

25:                                               ; preds = %23, %5
  %26 = call noundef signext i8 @_ZN4Json6Reader11getNextCharEv(ptr noundef nonnull align 8 dereferenceable(269) %4)
  %27 = sext i8 %26 to i32
  %28 = icmp eq i32 %27, 47
  ret i1 %28
}

; Function Attrs: mustprogress nounwind uwtable
define dso_local noundef signext i8 @_ZN4Json6Reader11getNextCharEv(ptr noundef nonnull align 8 dereferenceable(269) %0) #4 align 2 {
  %2 = alloca i8, align 1
  %3 = alloca ptr, align 8
  store ptr %0, ptr %3, align 8
  %4 = load ptr, ptr %3, align 8
  %5 = getelementptr inbounds %"class.Json::Reader", ptr %4, i32 0, i32 5
  %6 = load ptr, ptr %5, align 8
  %7 = getelementptr inbounds %"class.Json::Reader", ptr %4, i32 0, i32 4
  %8 = load ptr, ptr %7, align 8
  %9 = icmp eq ptr %6, %8
  br i1 %9, label %10, label %11

10:                                               ; preds = %1
  store i8 0, ptr %2, align 1
  br label %16

11:                                               ; preds = %1
  %12 = getelementptr inbounds %"class.Json::Reader", ptr %4, i32 0, i32 5
  %13 = load ptr, ptr %12, align 8
  %14 = getelementptr inbounds i8, ptr %13, i32 1
  store ptr %14, ptr %12, align 8
  %15 = load i8, ptr %13, align 1
  store i8 %15, ptr %2, align 1
  br label %16

16:                                               ; preds = %11, %10
  %17 = load i8, ptr %2, align 1
  ret i8 %17
}

; Function Attrs: mustprogress uwtable
define dso_local noundef zeroext i1 @_ZN4Json6Reader11readCommentEv(ptr noundef nonnull align 8 dereferenceable(269) %0) #5 align 2 {
  %2 = alloca i1, align 1
  %3 = alloca ptr, align 8
  %4 = alloca ptr, align 8
  %5 = alloca i8, align 1
  %6 = alloca i8, align 1
  %7 = alloca i32, align 4
  store ptr %0, ptr %3, align 8
  %8 = load ptr, ptr %3, align 8
  %9 = getelementptr inbounds %"class.Json::Reader", ptr %8, i32 0, i32 5
  %10 = load ptr, ptr %9, align 8
  %11 = getelementptr inbounds i8, ptr %10, i64 -1
  store ptr %11, ptr %4, align 8
  %12 = call noundef signext i8 @_ZN4Json6Reader11getNextCharEv(ptr noundef nonnull align 8 dereferenceable(269) %8)
  store i8 %12, ptr %5, align 1
  store i8 0, ptr %6, align 1
  %13 = load i8, ptr %5, align 1
  %14 = sext i8 %13 to i32
  %15 = icmp eq i32 %14, 42
  br i1 %15, label %16, label %19

16:                                               ; preds = %1
  %17 = call noundef zeroext i1 @_ZN4Json6Reader17readCStyleCommentEv(ptr noundef nonnull align 8 dereferenceable(269) %8)
  %18 = zext i1 %17 to i8
  store i8 %18, ptr %6, align 1
  br label %27

19:                                               ; preds = %1
  %20 = load i8, ptr %5, align 1
  %21 = sext i8 %20 to i32
  %22 = icmp eq i32 %21, 47
  br i1 %22, label %23, label %26

23:                                               ; preds = %19
  %24 = call noundef zeroext i1 @_ZN4Json6Reader19readCppStyleCommentEv(ptr noundef nonnull align 8 dereferenceable(269) %8)
  %25 = zext i1 %24 to i8
  store i8 %25, ptr %6, align 1
  br label %26

26:                                               ; preds = %23, %19
  br label %27

27:                                               ; preds = %26, %16
  %28 = load i8, ptr %6, align 1
  %29 = trunc i8 %28 to i1
  br i1 %29, label %31, label %30

30:                                               ; preds = %27
  store i1 false, ptr %2, align 1
  br label %61

31:                                               ; preds = %27
  %32 = getelementptr inbounds %"class.Json::Reader", ptr %8, i32 0, i32 10
  %33 = load i8, ptr %32, align 4
  %34 = trunc i8 %33 to i1
  br i1 %34, label %35, label %60

35:                                               ; preds = %31
  store i32 0, ptr %7, align 4
  %36 = getelementptr inbounds %"class.Json::Reader", ptr %8, i32 0, i32 6
  %37 = load ptr, ptr %36, align 8
  %38 = icmp ne ptr %37, null
  br i1 %38, label %39, label %55

39:                                               ; preds = %35
  %40 = getelementptr inbounds %"class.Json::Reader", ptr %8, i32 0, i32 6
  %41 = load ptr, ptr %40, align 8
  %42 = load ptr, ptr %4, align 8
  %43 = call noundef zeroext i1 @_ZN4Json6Reader15containsNewLineEPKcS2_(ptr noundef %41, ptr noundef %42)
  br i1 %43, label %55, label %44

44:                                               ; preds = %39
  %45 = load i8, ptr %5, align 1
  %46 = sext i8 %45 to i32
  %47 = icmp ne i32 %46, 42
  br i1 %47, label %53, label %48

48:                                               ; preds = %44
  %49 = load ptr, ptr %4, align 8
  %50 = getelementptr inbounds %"class.Json::Reader", ptr %8, i32 0, i32 5
  %51 = load ptr, ptr %50, align 8
  %52 = call noundef zeroext i1 @_ZN4Json6Reader15containsNewLineEPKcS2_(ptr noundef %49, ptr noundef %51)
  br i1 %52, label %54, label %53

53:                                               ; preds = %48, %44
  store i32 1, ptr %7, align 4
  br label %54

54:                                               ; preds = %53, %48
  br label %55

55:                                               ; preds = %54, %39, %35
  %56 = load ptr, ptr %4, align 8
  %57 = getelementptr inbounds %"class.Json::Reader", ptr %8, i32 0, i32 5
  %58 = load ptr, ptr %57, align 8
  %59 = load i32, ptr %7, align 4
  call void @_ZN4Json6Reader10addCommentEPKcS2_NS_16CommentPlacementE(ptr noundef nonnull align 8 dereferenceable(269) %8, ptr noundef %56, ptr noundef %58, i32 noundef %59)
  br label %60

60:                                               ; preds = %55, %31
  store i1 true, ptr %2, align 1
  br label %61

61:                                               ; preds = %60, %30
  %62 = load i1, ptr %2, align 1
  ret i1 %62
}