; Function Attrs: mustprogress uwtable
define dso_local noundef zeroext i1 @_ZN4Json6Reader11readCommentEv(ptr noundef nonnull align 8 dereferenceable(269) %0) local_unnamed_addr #6 align 2 {
  %2 = getelementptr inbounds i8, ptr %0, i64 208
  %3 = load ptr, ptr %2, align 8
  %4 = getelementptr inbounds i8, ptr %3, i64 -1
  %5 = getelementptr inbounds i8, ptr %0, i64 200
  %6 = load ptr, ptr %5, align 8
  %7 = icmp eq ptr %3, %6
  br i1 %7, label %_ZN4Json6Reader17readCStyleCommentEv.exit.thread25, label %_ZN4Json6Reader11getNextCharEv.exit

_ZN4Json6Reader11getNextCharEv.exit:              ; preds = %1
  %8 = getelementptr inbounds i8, ptr %3, i64 1
  store ptr %8, ptr %2, align 8
  %9 = load i8, ptr %3, align 1
  switch i8 %9, label %_ZN4Json6Reader17readCStyleCommentEv.exit.thread25 [
    i8 42, label %10
    i8 47, label %.preheader
  ]

10:                                               ; preds = %_ZN4Json6Reader11getNextCharEv.exit
  %11 = getelementptr inbounds i8, ptr %3, i64 2
  %12 = icmp ult ptr %11, %6
  br i1 %12, label %_ZN4Json6Reader11getNextCharEv.exit.i, label %._crit_edge.i

_ZN4Json6Reader11getNextCharEv.exit.i:            ; preds = %10, %_ZN4Json6Reader11getNextCharEv.exit.i.backedge
  %13 = phi ptr [ %.be, %_ZN4Json6Reader11getNextCharEv.exit.i.backedge ], [ %11, %10 ]
  %14 = phi ptr [ %13, %_ZN4Json6Reader11getNextCharEv.exit.i.backedge ], [ %8, %10 ]
  store ptr %13, ptr %2, align 8
  %15 = load i8, ptr %14, align 1
  %16 = icmp eq i8 %15, 42
  br i1 %16, label %17, label %_ZN4Json6Reader11getNextCharEv.exit.thread.i

17:                                               ; preds = %_ZN4Json6Reader11getNextCharEv.exit.i
  %18 = load i8, ptr %13, align 1
  %19 = icmp ne i8 %18, 47
  %20 = getelementptr inbounds i8, ptr %13, i64 1
  %21 = icmp ult ptr %20, %6
  %or.cond.i = select i1 %19, i1 %21, i1 false
  br i1 %or.cond.i, label %_ZN4Json6Reader11getNextCharEv.exit.i.backedge, label %._crit_edge.i

_ZN4Json6Reader11getNextCharEv.exit.thread.i:     ; preds = %_ZN4Json6Reader11getNextCharEv.exit.i
  %.old.i = getelementptr inbounds i8, ptr %13, i64 1
  %.old9.i = icmp ult ptr %.old.i, %6
  br i1 %.old9.i, label %_ZN4Json6Reader11getNextCharEv.exit.i.backedge, label %._crit_edge.i

_ZN4Json6Reader11getNextCharEv.exit.i.backedge:   ; preds = %_ZN4Json6Reader11getNextCharEv.exit.thread.i, %17
  %.be = phi ptr [ %.old.i, %_ZN4Json6Reader11getNextCharEv.exit.thread.i ], [ %20, %17 ]
  br label %_ZN4Json6Reader11getNextCharEv.exit.i, !llvm.loop !116

._crit_edge.i:                                    ; preds = %_ZN4Json6Reader11getNextCharEv.exit.thread.i, %17, %10
  %22 = phi ptr [ %8, %10 ], [ %13, %17 ], [ %13, %_ZN4Json6Reader11getNextCharEv.exit.thread.i ]
  %23 = icmp eq ptr %22, %6
  br i1 %23, label %_ZN4Json6Reader17readCStyleCommentEv.exit.thread25, label %_ZN4Json6Reader17readCStyleCommentEv.exit

.preheader:                                       ; preds = %_ZN4Json6Reader11getNextCharEv.exit, %_ZN4Json6Reader11getNextCharEv.exit.i16
  %24 = phi ptr [ %25, %_ZN4Json6Reader11getNextCharEv.exit.i16 ], [ %8, %_ZN4Json6Reader11getNextCharEv.exit ]
  %.not.i = icmp eq ptr %24, %6
  br i1 %.not.i, label %_ZN4Json6Reader17readCStyleCommentEv.exit.thread, label %_ZN4Json6Reader11getNextCharEv.exit.i16

_ZN4Json6Reader11getNextCharEv.exit.i16:          ; preds = %.preheader
  %25 = getelementptr inbounds i8, ptr %24, i64 1
  store ptr %25, ptr %2, align 8
  %26 = load i8, ptr %24, align 1
  switch i8 %26, label %.preheader [
    i8 10, label %_ZN4Json6Reader17readCStyleCommentEv.exit.thread
    i8 13, label %27
  ]

27:                                               ; preds = %_ZN4Json6Reader11getNextCharEv.exit.i16
  %.not3.i = icmp eq ptr %25, %6
  br i1 %.not3.i, label %_ZN4Json6Reader17readCStyleCommentEv.exit.thread, label %28

28:                                               ; preds = %27
  %29 = load i8, ptr %25, align 1
  %30 = icmp eq i8 %29, 10
  br i1 %30, label %_ZN4Json6Reader11getNextCharEv.exit5.i, label %_ZN4Json6Reader17readCStyleCommentEv.exit.thread

_ZN4Json6Reader11getNextCharEv.exit5.i:           ; preds = %28
  %31 = getelementptr inbounds i8, ptr %24, i64 2
  store ptr %31, ptr %2, align 8
  br label %_ZN4Json6Reader17readCStyleCommentEv.exit.thread

_ZN4Json6Reader17readCStyleCommentEv.exit:        ; preds = %._crit_edge.i
  %32 = getelementptr inbounds i8, ptr %22, i64 1
  store ptr %32, ptr %2, align 8
  %33 = load i8, ptr %22, align 1
  %34 = icmp eq i8 %33, 47
  br i1 %34, label %_ZN4Json6Reader17readCStyleCommentEv.exit.thread, label %_ZN4Json6Reader17readCStyleCommentEv.exit.thread25

_ZN4Json6Reader17readCStyleCommentEv.exit.thread: ; preds = %_ZN4Json6Reader11getNextCharEv.exit.i16, %.preheader, %_ZN4Json6Reader11getNextCharEv.exit5.i, %28, %27, %_ZN4Json6Reader17readCStyleCommentEv.exit
  %35 = phi ptr [ %31, %_ZN4Json6Reader11getNextCharEv.exit5.i ], [ %25, %28 ], [ %6, %27 ], [ %32, %_ZN4Json6Reader17readCStyleCommentEv.exit ], [ %25, %_ZN4Json6Reader11getNextCharEv.exit.i16 ], [ %6, %.preheader ]
  %36 = getelementptr inbounds i8, ptr %0, i64 268
  %37 = load i8, ptr %36, align 4
  %38 = and i8 %37, 1
  %.not = icmp eq i8 %38, 0
  br i1 %.not, label %_ZN4Json6Reader17readCStyleCommentEv.exit.thread25, label %39

39:                                               ; preds = %_ZN4Json6Reader17readCStyleCommentEv.exit.thread
  %40 = getelementptr inbounds i8, ptr %0, i64 216
  %41 = load ptr, ptr %40, align 8
  %.not13 = icmp eq ptr %41, null
  br i1 %.not13, label %48, label %42

42:                                               ; preds = %39
  %43 = tail call noundef zeroext i1 @_ZN4Json6Reader15containsNewLineEPKcS2_(ptr noundef nonnull %41, ptr noundef nonnull %4)
  br i1 %43, label %48, label %44

44:                                               ; preds = %42
  %.not14 = icmp eq i8 %9, 42
  br i1 %.not14, label %45, label %47

45:                                               ; preds = %44
  %46 = tail call noundef zeroext i1 @_ZN4Json6Reader15containsNewLineEPKcS2_(ptr noundef nonnull %4, ptr noundef %35)
  br i1 %46, label %48, label %47

47:                                               ; preds = %45, %44
  br label %48

48:                                               ; preds = %45, %47, %42, %39
  %.0 = phi i32 [ 0, %42 ], [ 1, %47 ], [ 0, %45 ], [ 0, %39 ]
  tail call void @_ZN4Json6Reader10addCommentEPKcS2_NS_16CommentPlacementE(ptr noundef nonnull align 8 dereferenceable(269) %0, ptr noundef nonnull %4, ptr noundef %35, i32 noundef %.0)
  br label %_ZN4Json6Reader17readCStyleCommentEv.exit.thread25

_ZN4Json6Reader17readCStyleCommentEv.exit.thread25: ; preds = %1, %._crit_edge.i, %_ZN4Json6Reader11getNextCharEv.exit, %_ZN4Json6Reader17readCStyleCommentEv.exit.thread, %48, %_ZN4Json6Reader17readCStyleCommentEv.exit
  %.0922 = phi i1 [ true, %_ZN4Json6Reader17readCStyleCommentEv.exit.thread ], [ true, %48 ], [ false, %_ZN4Json6Reader17readCStyleCommentEv.exit ], [ false, %_ZN4Json6Reader11getNextCharEv.exit ], [ false, %._crit_edge.i ], [ false, %1 ]
  ret i1 %.0922
}